target datalayout = "e-m:e-p270:32:32-p271:32:32-p272:64:64-i64:64-i128:128-f80:128-n8:16:32:64-S128"
target triple = "x86_64-pc-linux-gnu"

%struct.H5O_linfo_t = type { i8, i8, i64, i64, i64, i64, i64 }

@H5_libterm_g = external global i8, align 1
@H5P_init_g = external global i8, align 1

; Function Attrs: nounwind uwtable
define internal i32 @H5P__gcrt_link_info_enc(ptr noundef %0, ptr noundef %1, ptr noundef %2) #0 {
  %4 = alloca ptr, align 8
  %5 = alloca ptr, align 8
  %6 = alloca ptr, align 8
  %7 = alloca ptr, align 8
  %8 = alloca ptr, align 8
  %9 = alloca i32, align 4
  store ptr %0, ptr %4, align 8, !tbaa !34
  store ptr %1, ptr %5, align 8, !tbaa !34
  store ptr %2, ptr %6, align 8, !tbaa !21
  call void @llvm.lifetime.start.p0(i64 8, ptr %7) #6
  %10 = load ptr, ptr %4, align 8, !tbaa !34
  store ptr %10, ptr %7, align 8, !tbaa !44
  call void @llvm.lifetime.start.p0(i64 8, ptr %8) #6
  %11 = load ptr, ptr %5, align 8, !tbaa !34
  store ptr %11, ptr %8, align 8, !tbaa !37
  %12 = load i8, ptr @H5P_init_g, align 1, !tbaa !10, !range !12, !noundef !13
  %13 = trunc i8 %12 to i1
  br i1 %13, label %18, label %14

14:                                               ; preds = %3
  %15 = load i8, ptr @H5_libterm_g, align 1, !tbaa !10, !range !12, !noundef !13
  %16 = trunc i8 %15 to i1
  %17 = xor i1 %16, true
  br label %18

18:                                               ; preds = %14, %3
  %19 = phi i1 [ true, %3 ], [ %17, %14 ]
  %20 = xor i1 %19, true
  %21 = xor i1 %20, true
  %22 = zext i1 %21 to i32
  %23 = sext i32 %22 to i64
  %24 = call i64 @llvm.expect.i64(i64 %23, i64 1)
  %25 = icmp ne i64 %24, 0
  br i1 %25, label %26, label %93

26:                                               ; preds = %18
  %27 = load ptr, ptr %8, align 8, !tbaa !37
  %28 = load ptr, ptr %27, align 8, !tbaa !39
  %29 = icmp ne ptr null, %28
  br i1 %29, label %30, label %89

30:                                               ; preds = %26
  call void @llvm.lifetime.start.p0(i64 4, ptr %9) #6
  store i32 0, ptr %9, align 4, !tbaa !8
  %31 = load ptr, ptr %7, align 8, !tbaa !44
  %32 = getelementptr inbounds nuw %struct.H5O_linfo_t, ptr %31, i32 0, i32 0
  %33 = load i8, ptr %32, align 8, !tbaa !31, !range !12, !noundef !13
  %34 = trunc i8 %33 to i1
  %35 = select i1 %34, i32 1, i32 0
  %36 = load i32, ptr %9, align 4, !tbaa !8
  %37 = or i32 %36, %35
  store i32 %37, ptr %9, align 4, !tbaa !8
  %38 = load ptr, ptr %7, align 8, !tbaa !44
  %39 = getelementptr inbounds nuw %struct.H5O_linfo_t, ptr %38, i32 0, i32 1
  %40 = load i8, ptr %39, align 1, !tbaa !33, !range !12, !noundef !13
  %41 = trunc i8 %40 to i1
  %42 = select i1 %41, i32 2, i32 0
  %43 = load i32, ptr %9, align 4, !tbaa !8
  %44 = or i32 %43, %42
  store i32 %44, ptr %9, align 4, !tbaa !8
  %45 = load ptr, ptr %8, align 8, !tbaa !37
  %46 = load ptr, ptr %45, align 8, !tbaa !39
  %47 = getelementptr inbounds nuw i8, ptr %46, i32 1
  store ptr %47, ptr %45, align 8, !tbaa !39
  store i8 4, ptr %46, align 1, !tbaa !41
  br label %48

48:                                               ; preds = %30
  br label %49

49:                                               ; preds = %48
  %50 = load i32, ptr %9, align 4, !tbaa !8
  %51 = and i32 %50, 255
  %52 = trunc i32 %51 to i8
  %53 = load ptr, ptr %8, align 8, !tbaa !37
  %54 = load ptr, ptr %53, align 8, !tbaa !39
  store i8 %52, ptr %54, align 1, !tbaa !41
  %55 = load ptr, ptr %8, align 8, !tbaa !37
  %56 = load ptr, ptr %55, align 8, !tbaa !39
  %57 = getelementptr inbounds nuw i8, ptr %56, i32 1
  store ptr %57, ptr %55, align 8, !tbaa !39
  %58 = load i32, ptr %9, align 4, !tbaa !8
  %59 = lshr i32 %58, 8
  %60 = and i32 %59, 255
  %61 = trunc i32 %60 to i8
  %62 = load ptr, ptr %8, align 8, !tbaa !37
  %63 = load ptr, ptr %62, align 8, !tbaa !39
  store i8 %61, ptr %63, align 1, !tbaa !41
  %64 = load ptr, ptr %8, align 8, !tbaa !37
  %65 = load ptr, ptr %64, align 8, !tbaa !39
  %66 = getelementptr inbounds nuw i8, ptr %65, i32 1
  store ptr %66, ptr %64, align 8, !tbaa !39
  %67 = load i32, ptr %9, align 4, !tbaa !8
  %68 = lshr i32 %67, 16
  %69 = and i32 %68, 255
  %70 = trunc i32 %69 to i8
  %71 = load ptr, ptr %8, align 8, !tbaa !37
  %72 = load ptr, ptr %71, align 8, !tbaa !39
  store i8 %70, ptr %72, align 1, !tbaa !41
  %73 = load ptr, ptr %8, align 8, !tbaa !37
  %74 = load ptr, ptr %73, align 8, !tbaa !39
  %75 = getelementptr inbounds nuw i8, ptr %74, i32 1
  store ptr %75, ptr %73, align 8, !tbaa !39
  %76 = load i32, ptr %9, align 4, !tbaa !8
  %77 = lshr i32 %76, 24
  %78 = and i32 %77, 255
  %79 = trunc i32 %78 to i8
  %80 = load ptr, ptr %8, align 8, !tbaa !37
  %81 = load ptr, ptr %80, align 8, !tbaa !39
  store i8 %79, ptr %81, align 1, !tbaa !41
  %82 = load ptr, ptr %8, align 8, !tbaa !37
  %83 = load ptr, ptr %82, align 8, !tbaa !39
  %84 = getelementptr inbounds nuw i8, ptr %83, i32 1
  store ptr %84, ptr %82, align 8, !tbaa !39
  br label %85

85:                                               ; preds = %49
  br label %86

86:                                               ; preds = %85
  br label %87

87:                                               ; preds = %86
  br label %88

88:                                               ; preds = %87
  call void @llvm.lifetime.end.p0(i64 4, ptr %9) #6
  br label %89

89:                                               ; preds = %88, %26
  %90 = load ptr, ptr %6, align 8, !tbaa !21
  %91 = load i64, ptr %90, align 8, !tbaa !14
  %92 = add i64 %91, 5
  store i64 %92, ptr %90, align 8, !tbaa !14
  br label %93

93:                                               ; preds = %89, %18
  call void @llvm.lifetime.end.p0(i64 8, ptr %8) #6
  call void @llvm.lifetime.end.p0(i64 8, ptr %7) #6
  ret i32 0
}