; Function Attrs: mustprogress nofree norecurse nosync nounwind willreturn memory(readwrite, inaccessiblemem: none) uwtable
define internal noundef i32 @H5P__gcrt_link_info_enc(ptr noundef readonly captures(none) %0, ptr noundef captures(none) %1, ptr noundef captures(none) %2) #4 {
  %4 = load i8, ptr @H5P_init_g, align 1, !tbaa !3, !range !7, !noundef !8
  %5 = trunc nuw i8 %4 to i1
  %6 = load i8, ptr @H5_libterm_g, align 1, !range !7
  %7 = trunc nuw i8 %6 to i1
  %8 = xor i1 %7, true
  %9 = select i1 %5, i1 true, i1 %8
  br i1 %9, label %10, label %32, !prof !9

10:                                               ; preds = %3
  %11 = load ptr, ptr %1, align 8, !tbaa !29
  %.not = icmp eq ptr %11, null
  br i1 %.not, label %29, label %12

12:                                               ; preds = %10
  %13 = load i8, ptr %0, align 8, !tbaa !26, !range !7, !noundef !8
  %14 = getelementptr inbounds nuw i8, ptr %0, i64 1
  %15 = load i8, ptr %14, align 1, !tbaa !28, !range !7, !noundef !8
  %16 = trunc nuw i8 %15 to i1
  %17 = select i1 %16, i8 2, i8 0
  %18 = or disjoint i8 %17, %13
  %19 = getelementptr inbounds nuw i8, ptr %11, i64 1
  store ptr %19, ptr %1, align 8, !tbaa !29
  store i8 4, ptr %11, align 1, !tbaa !32
  %20 = load ptr, ptr %1, align 8, !tbaa !29
  store i8 %18, ptr %20, align 1, !tbaa !32
  %21 = load ptr, ptr %1, align 8, !tbaa !29
  %22 = getelementptr inbounds nuw i8, ptr %21, i64 1
  store ptr %22, ptr %1, align 8, !tbaa !29
  store i8 0, ptr %22, align 1, !tbaa !32
  %23 = load ptr, ptr %1, align 8, !tbaa !29
  %24 = getelementptr inbounds nuw i8, ptr %23, i64 1
  store ptr %24, ptr %1, align 8, !tbaa !29
  store i8 0, ptr %24, align 1, !tbaa !32
  %25 = load ptr, ptr %1, align 8, !tbaa !29
  %26 = getelementptr inbounds nuw i8, ptr %25, i64 1
  store ptr %26, ptr %1, align 8, !tbaa !29
  store i8 0, ptr %26, align 1, !tbaa !32
  %27 = load ptr, ptr %1, align 8, !tbaa !29
  %28 = getelementptr inbounds nuw i8, ptr %27, i64 1
  store ptr %28, ptr %1, align 8, !tbaa !29
  br label %29

29:                                               ; preds = %12, %10
  %30 = load i64, ptr %2, align 8, !tbaa !10
  %31 = add i64 %30, 5
  store i64 %31, ptr %2, align 8, !tbaa !10
  br label %32

32:                                               ; preds = %29, %3
  ret i32 0
}